; Function Attrs: mustprogress noreturn uwtable
define dso_local void @_ZN4absl13base_internal23ThrowStdInvalidArgumentEPKc(ptr noundef %what_arg) local_unnamed_addr #0 personality ptr @__gxx_personality_v0 {
entry:
  %exception = tail call ptr @__cxa_allocate_exception(i64 16) #3
  invoke void @_ZNSt16invalid_argumentC1EPKc(ptr noundef nonnull align 8 dereferenceable(16) %exception, ptr noundef %what_arg)
          to label %invoke.cont unwind label %lpad

invoke.cont:                                      ; preds = %entry
  tail call void @__cxa_throw(ptr nonnull %exception, ptr nonnull @_ZTISt16invalid_argument, ptr nonnull @_ZNSt16invalid_argumentD1Ev) #4
  unreachable

lpad:                                             ; preds = %entry
  %0 = landingpad { ptr, i32 }
          cleanup
  tail call void @__cxa_free_exception(ptr %exception) #3
  resume { ptr, i32 } %0
}